target datalayout = "e-m:e-p270:32:32-p271:32:32-p272:64:64-i64:64-i128:128-f80:128-n8:16:32:64-S128"
target triple = "x86_64-pc-linux-gnu"

; Function Attrs: mustprogress uwtable
define void @_ZN4LIEF5MachO4Hash5visitERKNS0_10ExportInfoE(ptr noundef nonnull align 8 dereferenceable(64) %0, ptr noundef nonnull align 8 dereferenceable(64) %1) unnamed_addr #3 align 2 {
  %3 = alloca ptr, align 8
  %4 = alloca ptr, align 8
  store ptr %0, ptr %3, align 8
  store ptr %1, ptr %4, align 8
  %5 = load ptr, ptr %3, align 8
  %6 = load ptr, ptr %4, align 8
  %7 = call noundef i64 @_ZNK4LIEF5MachO10ExportInfo11node_offsetEv(ptr noundef nonnull align 8 dereferenceable(64) %6)
  %8 = load ptr, ptr %5, align 8
  %9 = getelementptr inbounds ptr, ptr %8, i64 166
  %10 = load ptr, ptr %9, align 8
  %11 = call noundef nonnull align 8 dereferenceable(64) ptr %10(ptr noundef nonnull align 8 dereferenceable(64) %5, i64 noundef %7)
  %12 = load ptr, ptr %4, align 8
  %13 = call noundef i64 @_ZNK4LIEF5MachO10ExportInfo5flagsEv(ptr noundef nonnull align 8 dereferenceable(64) %12)
  %14 = load ptr, ptr %5, align 8
  %15 = getelementptr inbounds ptr, ptr %14, i64 166
  %16 = load ptr, ptr %15, align 8
  %17 = call noundef nonnull align 8 dereferenceable(64) ptr %16(ptr noundef nonnull align 8 dereferenceable(64) %5, i64 noundef %13)
  %18 = load ptr, ptr %4, align 8
  %19 = call noundef i64 @_ZNK4LIEF5MachO10ExportInfo7addressEv(ptr noundef nonnull align 8 dereferenceable(64) %18)
  %20 = load ptr, ptr %5, align 8
  %21 = getelementptr inbounds ptr, ptr %20, i64 166
  %22 = load ptr, ptr %21, align 8
  %23 = call noundef nonnull align 8 dereferenceable(64) ptr %22(ptr noundef nonnull align 8 dereferenceable(64) %5, i64 noundef %19)
  %24 = load ptr, ptr %4, align 8
  %25 = call noundef zeroext i1 @_ZNK4LIEF5MachO10ExportInfo10has_symbolEv(ptr noundef nonnull align 8 dereferenceable(64) %24)
  br i1 %25, label %26, label %37

26:                                               ; preds = %2
  %27 = load ptr, ptr %4, align 8
  %28 = call noundef ptr @_ZNK4LIEF5MachO10ExportInfo6symbolEv(ptr noundef nonnull align 8 dereferenceable(64) %27)
  %29 = load ptr, ptr %28, align 8
  %30 = getelementptr inbounds ptr, ptr %29, i64 5
  %31 = load ptr, ptr %30, align 8
  %32 = call noundef nonnull align 8 dereferenceable(32) ptr %31(ptr noundef nonnull align 8 dereferenceable(56) %28)
  %33 = load ptr, ptr %5, align 8
  %34 = getelementptr inbounds ptr, ptr %33, i64 167
  %35 = load ptr, ptr %34, align 8
  %36 = call noundef nonnull align 8 dereferenceable(64) ptr %35(ptr noundef nonnull align 8 dereferenceable(64) %5, ptr noundef nonnull align 8 dereferenceable(32) %32)
  br label %37

37:                                               ; preds = %26, %2
  ret void
}