; Function Attrs: mustprogress uwtable
define void @_ZN4LIEF5MachO4Hash5visitERKNS0_10ExportInfoE(ptr noundef nonnull align 8 dereferenceable(64) %0, ptr noundef nonnull align 8 dereferenceable(64) %1) unnamed_addr #3 align 2 {
  %3 = tail call noundef i64 @_ZNK4LIEF5MachO10ExportInfo11node_offsetEv(ptr noundef nonnull align 8 dereferenceable(64) %1)
  %4 = load ptr, ptr %0, align 8
  %5 = getelementptr inbounds i8, ptr %4, i64 1328
  %6 = load ptr, ptr %5, align 8
  %7 = tail call noundef nonnull align 8 dereferenceable(64) ptr %6(ptr noundef nonnull align 8 dereferenceable(64) %0, i64 noundef %3)
  %8 = tail call noundef i64 @_ZNK4LIEF5MachO10ExportInfo5flagsEv(ptr noundef nonnull align 8 dereferenceable(64) %1)
  %9 = load ptr, ptr %0, align 8
  %10 = getelementptr inbounds i8, ptr %9, i64 1328
  %11 = load ptr, ptr %10, align 8
  %12 = tail call noundef nonnull align 8 dereferenceable(64) ptr %11(ptr noundef nonnull align 8 dereferenceable(64) %0, i64 noundef %8)
  %13 = tail call noundef i64 @_ZNK4LIEF5MachO10ExportInfo7addressEv(ptr noundef nonnull align 8 dereferenceable(64) %1)
  %14 = load ptr, ptr %0, align 8
  %15 = getelementptr inbounds i8, ptr %14, i64 1328
  %16 = load ptr, ptr %15, align 8
  %17 = tail call noundef nonnull align 8 dereferenceable(64) ptr %16(ptr noundef nonnull align 8 dereferenceable(64) %0, i64 noundef %13)
  %18 = tail call noundef zeroext i1 @_ZNK4LIEF5MachO10ExportInfo10has_symbolEv(ptr noundef nonnull align 8 dereferenceable(64) %1)
  br i1 %18, label %19, label %29

19:                                               ; preds = %2
  %20 = tail call noundef ptr @_ZNK4LIEF5MachO10ExportInfo6symbolEv(ptr noundef nonnull align 8 dereferenceable(64) %1)
  %21 = load ptr, ptr %20, align 8
  %22 = getelementptr inbounds i8, ptr %21, i64 40
  %23 = load ptr, ptr %22, align 8
  %24 = tail call noundef nonnull align 8 dereferenceable(32) ptr %23(ptr noundef nonnull align 8 dereferenceable(56) %20)
  %25 = load ptr, ptr %0, align 8
  %26 = getelementptr inbounds i8, ptr %25, i64 1336
  %27 = load ptr, ptr %26, align 8
  %28 = tail call noundef nonnull align 8 dereferenceable(64) ptr %27(ptr noundef nonnull align 8 dereferenceable(64) %0, ptr noundef nonnull align 8 dereferenceable(32) %24)
  br label %29

29:                                               ; preds = %19, %2
  ret void
}